ARM GAS  C:\Users\GITUD\AppData\Local\Temp\ccZCDyYW.s 			page 1


   1              		.syntax unified
   2              		.cpu cortex-m3
   3              		.fpu softvfp
   4              		.eabi_attribute 20, 1
   5              		.eabi_attribute 21, 1
   6              		.eabi_attribute 23, 3
   7              		.eabi_attribute 24, 1
   8              		.eabi_attribute 25, 1
   9              		.eabi_attribute 26, 1
  10              		.eabi_attribute 30, 1
  11              		.eabi_attribute 34, 1
  12              		.eabi_attribute 18, 4
  13              		.thumb
  14              		.syntax unified
  15              		.file	"main.c"
  16              		.text
  17              	.Ltext0:
  18              		.cfi_sections	.debug_frame
  19              		.global	__aeabi_i2d
  20              		.global	__aeabi_dmul
  21              		.global	__aeabi_dadd
  22              		.global	__aeabi_d2uiz
  23              		.section	.text.main,"ax",%progbits
  24              		.align	2
  25              		.global	main
  26              		.thumb
  27              		.thumb_func
  28              		.type	main, %function
  29              	main:
  30              	.LFB63:
  31              		.file 1 "main.c"
   1:main.c        **** /* ========================================
   2:main.c        ****  *
   3:main.c        ****  * Copyright YOUR COMPANY, THE YEAR
   4:main.c        ****  * All Rights Reserved
   5:main.c        ****  * UNPUBLISHED, LICENSED SOFTWARE.
   6:main.c        ****  *
   7:main.c        ****  * CONFIDENTIAL AND PROPRIETARY INFORMATION
   8:main.c        ****  * WHICH IS THE PROPERTY OF your company.
   9:main.c        ****  *
  10:main.c        ****  * ========================================
  11:main.c        **** Amplitud con el potenciometro
  12:main.c        **** Cambio de frecuencia con pulsadores
  13:main.c        **** 
  14:main.c        **** Mecánica:
  15:main.c        **** - Hacer el periodo del Timer igual al de 256 veces la frecuencia deseada (para las 256 muestras)
  16:main.c        **** - En cada flanco de subida del timer el DAC se actualiza con el registro de control
  17:main.c        **** - En cada flanco de bajada del timer se actualiza el registro de control, y se incrementa el indice
  18:main.c        **** - Cada medio segundo se hace una conversion ADC. Una vez completada, se recalcula toda la tabla
  19:main.c        **** - 
  20:main.c        **** UPD_DAC lee el siguiente valor de la tabla y lo escribe en el DAC
  21:main.c        **** 
  22:main.c        **** */
  23:main.c        **** #include "project.h"
  24:main.c        **** #include <math.h>
  25:main.c        **** 
  26:main.c        **** #define PI 3.14159265
ARM GAS  C:\Users\GITUD\AppData\Local\Temp\ccZCDyYW.s 			page 2


  27:main.c        **** 
  28:main.c        **** /* Defines for DMA */
  29:main.c        **** #define DMA_BYTES_PER_BURST 1
  30:main.c        **** #define DMA_REQUEST_PER_BURST 1
  31:main.c        **** #define DMA_SRC_BASE (CYDEV_SRAM_BASE)
  32:main.c        **** #define DMA_DST_BASE (CYDEV_PERIPH_BASE)
  33:main.c        **** 
  34:main.c        **** CYCODE char tabla[256];
  35:main.c        **** 
  36:main.c        **** int main(void)
  37:main.c        **** {
  32              		.loc 1 37 0
  33              		.cfi_startproc
  34              		@ args = 0, pretend = 0, frame = 0
  35              		@ frame_needed = 0, uses_anonymous_args = 0
  36 0000 2DE9F843 		push	{r3, r4, r5, r6, r7, r8, r9, lr}
  37              		.cfi_def_cfa_offset 32
  38              		.cfi_offset 3, -32
  39              		.cfi_offset 4, -28
  40              		.cfi_offset 5, -24
  41              		.cfi_offset 6, -20
  42              		.cfi_offset 7, -16
  43              		.cfi_offset 8, -12
  44              		.cfi_offset 9, -8
  45              		.cfi_offset 14, -4
  38:main.c        ****     int i;
  39:main.c        ****     
  40:main.c        **** 
  41:main.c        ****     CyGlobalIntEnable; /* Enable global interrupts. */
  46              		.loc 1 41 0
  47              		.syntax unified
  48              	@ 41 "main.c" 1
  49 0004 62B6     		CPSIE   i
  50              	@ 0 "" 2
  51              	.LVL0:
  42:main.c        ****     for (i=0;i<512;i++)
  52              		.loc 1 42 0
  53              		.thumb
  54              		.syntax unified
  55 0006 0024     		movs	r4, #0
  56 0008 3CE0     		b	.L2
  57              	.LVL1:
  58              	.L3:
  43:main.c        ****         tabla[i]=(char)((sin(2.0*PI*i/512.0)+1)*100.0/2.0+(sin(2.0*PI*i/256.0)+1)*100.0/2.0);
  59              		.loc 1 43 0 discriminator 3
  60 000a 2046     		mov	r0, r4
  61 000c FFF7FEFF 		bl	__aeabi_i2d
  62              	.LVL2:
  63 0010 31A3     		adr	r3, .L6
  64 0012 D3E90023 		ldrd	r2, [r3]
  65 0016 FFF7FEFF 		bl	__aeabi_dmul
  66              	.LVL3:
  67 001a 8046     		mov	r8, r0
  68 001c 8946     		mov	r9, r1
  69 001e 0022     		movs	r2, #0
  70 0020 2F4B     		ldr	r3, .L6+8
  71 0022 FFF7FEFF 		bl	__aeabi_dmul
ARM GAS  C:\Users\GITUD\AppData\Local\Temp\ccZCDyYW.s 			page 3


  72              	.LVL4:
  73 0026 FFF7FEFF 		bl	sin
  74              	.LVL5:
  75 002a 0022     		movs	r2, #0
  76 002c 2D4B     		ldr	r3, .L6+12
  77 002e FFF7FEFF 		bl	__aeabi_dadd
  78              	.LVL6:
  79 0032 0022     		movs	r2, #0
  80 0034 2C4B     		ldr	r3, .L6+16
  81 0036 FFF7FEFF 		bl	__aeabi_dmul
  82              	.LVL7:
  83 003a 0022     		movs	r2, #0
  84 003c 2B4B     		ldr	r3, .L6+20
  85 003e FFF7FEFF 		bl	__aeabi_dmul
  86              	.LVL8:
  87 0042 0646     		mov	r6, r0
  88 0044 0F46     		mov	r7, r1
  89 0046 0022     		movs	r2, #0
  90 0048 294B     		ldr	r3, .L6+24
  91 004a 4046     		mov	r0, r8
  92 004c 4946     		mov	r1, r9
  93 004e FFF7FEFF 		bl	__aeabi_dmul
  94              	.LVL9:
  95 0052 FFF7FEFF 		bl	sin
  96              	.LVL10:
  97 0056 0022     		movs	r2, #0
  98 0058 224B     		ldr	r3, .L6+12
  99 005a FFF7FEFF 		bl	__aeabi_dadd
 100              	.LVL11:
 101 005e 0022     		movs	r2, #0
 102 0060 214B     		ldr	r3, .L6+16
 103 0062 FFF7FEFF 		bl	__aeabi_dmul
 104              	.LVL12:
 105 0066 0022     		movs	r2, #0
 106 0068 204B     		ldr	r3, .L6+20
 107 006a FFF7FEFF 		bl	__aeabi_dmul
 108              	.LVL13:
 109 006e 0246     		mov	r2, r0
 110 0070 0B46     		mov	r3, r1
 111 0072 3046     		mov	r0, r6
 112 0074 3946     		mov	r1, r7
 113 0076 FFF7FEFF 		bl	__aeabi_dadd
 114              	.LVL14:
 115 007a FFF7FEFF 		bl	__aeabi_d2uiz
 116              	.LVL15:
 117 007e 1D4B     		ldr	r3, .L6+28
 118 0080 1855     		strb	r0, [r3, r4]
  42:main.c        ****     for (i=0;i<512;i++)
 119              		.loc 1 42 0 discriminator 3
 120 0082 0134     		adds	r4, r4, #1
 121              	.LVL16:
 122              	.L2:
  42:main.c        ****     for (i=0;i<512;i++)
 123              		.loc 1 42 0 is_stmt 0 discriminator 1
 124 0084 B4F5007F 		cmp	r4, #512
 125 0088 BFDB     		blt	.L3
  44:main.c        **** 
ARM GAS  C:\Users\GITUD\AppData\Local\Temp\ccZCDyYW.s 			page 4


  45:main.c        ****     /* Variable declarations for DMA */
  46:main.c        ****     /* Move these variable declarations to the top of the function */
  47:main.c        ****     uint8 DMA_Chan;
  48:main.c        ****     uint8 DMA_TD[1];
  49:main.c        **** 
  50:main.c        ****     /* DMA Configuration for DMA */
  51:main.c        ****     DMA_Chan = DMA_DmaInitialize(DMA_BYTES_PER_BURST, DMA_REQUEST_PER_BURST, 
 126              		.loc 1 51 0 is_stmt 1
 127 008a 4FF48043 		mov	r3, #16384
 128 008e 41F6FF72 		movw	r2, #8191
 129 0092 0121     		movs	r1, #1
 130 0094 0846     		mov	r0, r1
 131 0096 FFF7FEFF 		bl	DMA_DmaInitialize
 132              	.LVL17:
 133 009a 0546     		mov	r5, r0
 134              	.LVL18:
  52:main.c        ****     HI16(DMA_SRC_BASE), HI16(DMA_DST_BASE));
  53:main.c        ****     DMA_TD[0] = CyDmaTdAllocate();
 135              		.loc 1 53 0
 136 009c FFF7FEFF 		bl	CyDmaTdAllocate
 137              	.LVL19:
 138 00a0 0446     		mov	r4, r0
 139              	.LVL20:
  54:main.c        ****     CyDmaTdSetConfiguration(DMA_TD[0], 512, DMA_TD[0], CY_DMA_TD_INC_SRC_ADR);
 140              		.loc 1 54 0
 141 00a2 0123     		movs	r3, #1
 142 00a4 0246     		mov	r2, r0
 143 00a6 4FF40071 		mov	r1, #512
 144 00aa FFF7FEFF 		bl	CyDmaTdSetConfiguration
 145              	.LVL21:
  55:main.c        ****     CyDmaTdSetAddress(DMA_TD[0], LO16((uint32)tabla), LO16((uint32)DAC_Data_PTR));
 146              		.loc 1 55 0
 147 00ae 45F68332 		movw	r2, #23427
 148 00b2 1049     		ldr	r1, .L6+28
 149 00b4 89B2     		uxth	r1, r1
 150 00b6 2046     		mov	r0, r4
 151 00b8 FFF7FEFF 		bl	CyDmaTdSetAddress
 152              	.LVL22:
  56:main.c        ****     CyDmaChSetInitialTd(DMA_Chan, DMA_TD[0]);
 153              		.loc 1 56 0
 154 00bc 2146     		mov	r1, r4
 155 00be 2846     		mov	r0, r5
 156 00c0 FFF7FEFF 		bl	CyDmaChSetInitialTd
 157              	.LVL23:
  57:main.c        ****     CyDmaChEnable(DMA_Chan, 1);
 158              		.loc 1 57 0
 159 00c4 0121     		movs	r1, #1
 160 00c6 2846     		mov	r0, r5
 161 00c8 FFF7FEFF 		bl	CyDmaChEnable
 162              	.LVL24:
  58:main.c        **** 
  59:main.c        ****     DAC_Start();
 163              		.loc 1 59 0
 164 00cc FFF7FEFF 		bl	DAC_Start
 165              	.LVL25:
 166              	.L4:
 167 00d0 FEE7     		b	.L4
ARM GAS  C:\Users\GITUD\AppData\Local\Temp\ccZCDyYW.s 			page 5


 168              	.L7:
 169 00d2 00BFAFF3 		.align	3
 169      0080
 170              	.L6:
 171 00d8 F1D4C853 		.word	1405670641
 172 00dc FB211940 		.word	1075388923
 173 00e0 0000603F 		.word	1063256064
 174 00e4 0000F03F 		.word	1072693248
 175 00e8 00005940 		.word	1079574528
 176 00ec 0000E03F 		.word	1071644672
 177 00f0 0000703F 		.word	1064304640
 178 00f4 00000000 		.word	tabla
 179              		.cfi_endproc
 180              	.LFE63:
 181              		.size	main, .-main
 182              		.comm	tabla,256,4
 183              		.text
 184              	.Letext0:
 185              		.file 2 "d:\\program files (x86)\\cypress\\psoc creator\\4.2\\psoc creator\\import\\gnu\\arm\\5.4.
 186              		.file 3 "d:\\program files (x86)\\cypress\\psoc creator\\4.2\\psoc creator\\import\\gnu\\arm\\5.4.
 187              		.file 4 "Generated_Source\\PSoC5/cytypes.h"
 188              		.file 5 "Generated_Source\\PSoC5/core_cm3.h"
 189              		.file 6 "Generated_Source\\PSoC5/DMA_dma.h"
 190              		.file 7 "Generated_Source\\PSoC5/CYDMAC.H"
 191              		.file 8 "Generated_Source\\PSoC5/DAC.h"
 192              		.file 9 "d:\\program files (x86)\\cypress\\psoc creator\\4.2\\psoc creator\\import\\gnu\\arm\\5.4.